; Function Attrs: mustprogress nounwind uwtable
define internal fastcc noundef zeroext i1 @_ZNKSt4lessIN12_GLOBAL__N_19SatHelper14ModelBlockInfoEEclERKS2_S5_(ptr noundef nonnull align 8 dereferenceable(48) %0, ptr noundef nonnull align 8 dereferenceable(48) %1) unnamed_addr #3 align 2 personality ptr @__gxx_personality_v0 {
  %3 = load i32, ptr %0, align 8
  %4 = load i32, ptr %1, align 8
  %.not.i = icmp eq i32 %3, %4
  br i1 %.not.i, label %7, label %5

5:                                                ; preds = %2
  %6 = icmp slt i32 %3, %4
  br label %_ZNK12_GLOBAL__N_19SatHelper14ModelBlockInfoltERKS1_.exit

7:                                                ; preds = %2
  %8 = getelementptr inbounds i8, ptr %0, i64 16
  %9 = getelementptr inbounds i8, ptr %1, i64 16
  %10 = tail call noundef i64 @_ZNKSt7__cxx1112basic_stringIcSt11char_traitsIcESaIcEE4sizeEv(ptr noundef nonnull align 8 dereferenceable(32) %8) #24
  %11 = tail call noundef i64 @_ZNKSt7__cxx1112basic_stringIcSt11char_traitsIcESaIcEE4sizeEv(ptr noundef nonnull align 8 dereferenceable(32) %9) #24
  %12 = icmp eq i64 %10, %11
  br i1 %12, label %13, label %_ZStneIcSt11char_traitsIcESaIcEEbRKNSt7__cxx1112basic_stringIT_T0_T1_EESA_.exit.thread.i

13:                                               ; preds = %7
  %14 = tail call noundef ptr @_ZNKSt7__cxx1112basic_stringIcSt11char_traitsIcESaIcEE4dataEv(ptr noundef nonnull align 8 dereferenceable(32) %8) #24
  %15 = tail call noundef ptr @_ZNKSt7__cxx1112basic_stringIcSt11char_traitsIcESaIcEE4dataEv(ptr noundef nonnull align 8 dereferenceable(32) %9) #24
  %16 = tail call noundef i64 @_ZNKSt7__cxx1112basic_stringIcSt11char_traitsIcESaIcEE4sizeEv(ptr noundef nonnull align 8 dereferenceable(32) %8) #24
  %17 = icmp eq i64 %16, 0
  br i1 %17, label %_ZStneIcSt11char_traitsIcESaIcEEbRKNSt7__cxx1112basic_stringIT_T0_T1_EESA_.exit.thread18.i, label %_ZStneIcSt11char_traitsIcESaIcEEbRKNSt7__cxx1112basic_stringIT_T0_T1_EESA_.exit.i

_ZStneIcSt11char_traitsIcESaIcEEbRKNSt7__cxx1112basic_stringIT_T0_T1_EESA_.exit.i: ; preds = %13
  %bcmp.i.i.i = tail call i32 @bcmp(ptr %14, ptr %15, i64 %16)
  %.not19.i = icmp eq i32 %bcmp.i.i.i, 0
  br i1 %.not19.i, label %_ZStneIcSt11char_traitsIcESaIcEEbRKNSt7__cxx1112basic_stringIT_T0_T1_EESA_.exit.thread18.i, label %_ZStneIcSt11char_traitsIcESaIcEEbRKNSt7__cxx1112basic_stringIT_T0_T1_EESA_.exit.thread.i

_ZStneIcSt11char_traitsIcESaIcEEbRKNSt7__cxx1112basic_stringIT_T0_T1_EESA_.exit.thread.i: ; preds = %_ZStneIcSt11char_traitsIcESaIcEEbRKNSt7__cxx1112basic_stringIT_T0_T1_EESA_.exit.i, %7
  %18 = invoke noundef i32 @_ZNKSt7__cxx1112basic_stringIcSt11char_traitsIcESaIcEE7compareERKS4_(ptr noundef nonnull align 8 dereferenceable(32) %8, ptr noundef nonnull align 8 dereferenceable(32) %9)
          to label %_ZStltIcSt11char_traitsIcESaIcEEbRKNSt7__cxx1112basic_stringIT_T0_T1_EESA_.exit.i unwind label %19

19:                                               ; preds = %_ZStneIcSt11char_traitsIcESaIcEEbRKNSt7__cxx1112basic_stringIT_T0_T1_EESA_.exit.thread.i
  %20 = landingpad { ptr, i32 }
          catch ptr null
  %21 = extractvalue { ptr, i32 } %20, 0
  tail call void @__clang_call_terminate(ptr %21) #28
  unreachable

_ZStltIcSt11char_traitsIcESaIcEEbRKNSt7__cxx1112basic_stringIT_T0_T1_EESA_.exit.i: ; preds = %_ZStneIcSt11char_traitsIcESaIcEEbRKNSt7__cxx1112basic_stringIT_T0_T1_EESA_.exit.thread.i
  %22 = icmp slt i32 %18, 0
  br label %_ZNK12_GLOBAL__N_19SatHelper14ModelBlockInfoltERKS1_.exit

_ZStneIcSt11char_traitsIcESaIcEEbRKNSt7__cxx1112basic_stringIT_T0_T1_EESA_.exit.thread18.i: ; preds = %_ZStneIcSt11char_traitsIcESaIcEEbRKNSt7__cxx1112basic_stringIT_T0_T1_EESA_.exit.i, %13
  %23 = getelementptr inbounds i8, ptr %0, i64 4
  %24 = load i32, ptr %23, align 4
  %25 = getelementptr inbounds i8, ptr %1, i64 4
  %26 = load i32, ptr %25, align 4
  %.not16.i = icmp eq i32 %24, %26
  br i1 %.not16.i, label %29, label %27

27:                                               ; preds = %_ZStneIcSt11char_traitsIcESaIcEEbRKNSt7__cxx1112basic_stringIT_T0_T1_EESA_.exit.thread18.i
  %28 = icmp slt i32 %24, %26
  br label %_ZNK12_GLOBAL__N_19SatHelper14ModelBlockInfoltERKS1_.exit

29:                                               ; preds = %_ZStneIcSt11char_traitsIcESaIcEEbRKNSt7__cxx1112basic_stringIT_T0_T1_EESA_.exit.thread18.i
  %30 = getelementptr inbounds i8, ptr %0, i64 8
  %31 = load i32, ptr %30, align 8
  %32 = getelementptr inbounds i8, ptr %1, i64 8
  %33 = load i32, ptr %32, align 8
  %34 = icmp slt i32 %31, %33
  br label %_ZNK12_GLOBAL__N_19SatHelper14ModelBlockInfoltERKS1_.exit

_ZNK12_GLOBAL__N_19SatHelper14ModelBlockInfoltERKS1_.exit: ; preds = %5, %_ZStltIcSt11char_traitsIcESaIcEEbRKNSt7__cxx1112basic_stringIT_T0_T1_EESA_.exit.i, %27, %29
  %.0.i = phi i1 [ %6, %5 ], [ %22, %_ZStltIcSt11char_traitsIcESaIcEEbRKNSt7__cxx1112basic_stringIT_T0_T1_EESA_.exit.i ], [ %28, %27 ], [ %34, %29 ]
  ret i1 %.0.i
}